target datalayout = "e-m:e-p270:32:32-p271:32:32-p272:64:64-i64:64-i128:128-f80:128-n8:16:32:64-S128"
target triple = "x86_64-pc-linux-gnu"

%struct._lv_freetype_font_dsc_t = type { i32, %struct._lv_font_t, i32, i32, i32, ptr, ptr, ptr, ptr }
%struct._lv_font_t = type { ptr, ptr, ptr, i32, i32, i8, i8, i8, ptr, ptr, ptr }
%struct._lv_freetype_cache_node_t = type { ptr, i32, i32, i32, ptr, i32, ptr, ptr }

; Function Attrs: nounwind uwtable
define i32 @lv_freetype_outline_get_scale(ptr noundef %0) #0 {
  %2 = alloca ptr, align 8
  %3 = alloca ptr, align 8
  store ptr %0, ptr %2, align 8, !tbaa !41
  br label %4

4:                                                ; preds = %1
  %5 = load ptr, ptr %2, align 8, !tbaa !41
  %6 = icmp ne ptr %5, null
  br i1 %6, label %11, label %7

7:                                                ; preds = %4
  br label %8

8:                                                ; preds = %7
  br label %9

9:                                                ; preds = %8
  br label %10

10:                                               ; preds = %9, %10
  br label %10

11:                                               ; preds = %4
  br label %12

12:                                               ; preds = %11
  call void @llvm.lifetime.start.p0(i64 8, ptr %3) #5
  %13 = load ptr, ptr %2, align 8, !tbaa !41
  %14 = getelementptr inbounds nuw %struct._lv_font_t, ptr %13, i32 0, i32 8
  %15 = load ptr, ptr %14, align 8, !tbaa !42
  store ptr %15, ptr %3, align 8, !tbaa !14
  br label %16

16:                                               ; preds = %12
  br label %17

17:                                               ; preds = %16
  %18 = load ptr, ptr %3, align 8, !tbaa !14
  %19 = icmp ne ptr %18, null
  br i1 %19, label %26, label %20

20:                                               ; preds = %17
  br label %21

21:                                               ; preds = %20
  br label %22

22:                                               ; preds = %21
  br label %23

23:                                               ; preds = %22
  br label %24

24:                                               ; preds = %25, %23
  br label %25

25:                                               ; preds = %24
  br label %24

26:                                               ; preds = %17
  br label %27

27:                                               ; preds = %26
  br label %28

28:                                               ; preds = %27
  br label %29

29:                                               ; preds = %28
  %30 = load ptr, ptr %3, align 8, !tbaa !14
  %31 = getelementptr inbounds nuw %struct._lv_freetype_font_dsc_t, ptr %30, i32 0, i32 0
  %32 = load i32, ptr %31, align 8, !tbaa !33
  %33 = icmp eq i32 %32, 1600079444
  br i1 %33, label %40, label %34

34:                                               ; preds = %29
  br label %35

35:                                               ; preds = %34
  br label %36

36:                                               ; preds = %35
  br label %37

37:                                               ; preds = %36
  br label %38

38:                                               ; preds = %39, %37
  br label %39

39:                                               ; preds = %38
  br label %38

40:                                               ; preds = %29
  br label %41

41:                                               ; preds = %40
  br label %42

42:                                               ; preds = %41
  br label %43

43:                                               ; preds = %42
  br label %44

44:                                               ; preds = %43
  %45 = load ptr, ptr %3, align 8, !tbaa !14
  %46 = getelementptr inbounds nuw %struct._lv_freetype_font_dsc_t, ptr %45, i32 0, i32 2
  %47 = load i32, ptr %46, align 8, !tbaa !51
  %48 = shl i32 %47, 6
  %49 = load ptr, ptr %3, align 8, !tbaa !14
  %50 = getelementptr inbounds nuw %struct._lv_freetype_font_dsc_t, ptr %49, i32 0, i32 6
  %51 = load ptr, ptr %50, align 8, !tbaa !16
  %52 = getelementptr inbounds nuw %struct._lv_freetype_cache_node_t, ptr %51, i32 0, i32 3
  %53 = load i32, ptr %52, align 8, !tbaa !28
  %54 = udiv i32 %48, %53
  call void @llvm.lifetime.end.p0(i64 8, ptr %3) #5
  ret i32 %54
}