; Function Attrs: nofree norecurse nosync nounwind memory(read, inaccessiblemem: none) uwtable
define range(i32 0, -63) i32 @lv_freetype_outline_get_scale(ptr noundef readonly captures(address_is_null) %0) local_unnamed_addr #6 {
  %.not = icmp eq ptr %0, null
  br i1 %.not, label %.preheader, label %2

.preheader:                                       ; preds = %1, %.preheader
  br label %.preheader

2:                                                ; preds = %1
  %3 = getelementptr inbounds nuw i8, ptr %0, i64 40
  %4 = load ptr, ptr %3, align 8, !tbaa !77
  %.not7 = icmp eq ptr %4, null
  br i1 %.not7, label %.preheader8, label %5

.preheader8:                                      ; preds = %2, %.preheader8
  br label %.preheader8

5:                                                ; preds = %2
  %6 = load i32, ptr %4, align 8, !tbaa !72
  %7 = icmp eq i32 %6, 1600079444
  br i1 %7, label %8, label %.preheader9

.preheader9:                                      ; preds = %5, %.preheader9
  br label %.preheader9

8:                                                ; preds = %5
  %9 = getelementptr inbounds nuw i8, ptr %4, i64 72
  %10 = load i32, ptr %9, align 8, !tbaa !80
  %11 = shl i32 %10, 6
  %12 = getelementptr inbounds nuw i8, ptr %4, i64 96
  %13 = load ptr, ptr %12, align 8, !tbaa !16
  %14 = getelementptr inbounds nuw i8, ptr %13, i64 16
  %15 = load i32, ptr %14, align 8, !tbaa !23
  %16 = udiv i32 %11, %15
  ret i32 %16
}